; ModuleID = '22/815.c'
source_filename = "22/815.c"
target datalayout = "e-m:e-p270:32:32-p271:32:32-p272:64:64-i64:64-f80:128-n8:16:32:64-S128"
target triple = "x86_64-pc-linux-gnu"

@.str = private unnamed_addr constant [3 x i8] c"%d\00", align 1
@.str.1 = private unnamed_addr constant [3 x i8] c"No\00", align 1

; Function Attrs: noinline nounwind uwtable
define dso_local void @main() #0 {
  %1 = alloca i8, align 1
  %2 = alloca i32, align 4
  %3 = alloca i32, align 4
  %4 = alloca i32, align 4
  %5 = alloca i32, align 4
  %6 = alloca i32, align 4
  %7 = alloca i32, align 4
  %8 = alloca [300 x i32], align 16
  store i32 0, i32* %2, align 4
  store i32 0, i32* %3, align 4
  store i32 -1, i32* %5, align 4
  %9 = bitcast [300 x i32]* %8 to i8*
  call void @llvm.memset.p0i8.i64(i8* align 16 %9, i8 0, i64 1200, i1 false)
  br label %10

10:                                               ; preds = %33, %0
  %11 = call i32 @getchar()
  %12 = trunc i32 %11 to i8
  store i8 %12, i8* %1, align 1
  %13 = sext i8 %12 to i32
  %14 = icmp ne i32 %13, 10
  br i1 %14, label %15, label %34

15:                                               ; preds = %10
  %16 = load i8, i8* %1, align 1
  %17 = sext i8 %16 to i32
  %18 = icmp eq i32 %17, 44
  br i1 %18, label %19, label %26

19:                                               ; preds = %15
  %20 = load i32, i32* %2, align 4
  %21 = load i32, i32* %3, align 4
  %22 = sext i32 %21 to i64
  %23 = getelementptr inbounds [300 x i32], [300 x i32]* %8, i64 0, i64 %22
  store i32 %20, i32* %23, align 4
  %24 = load i32, i32* %3, align 4
  %25 = add nsw i32 %24, 1
  store i32 %25, i32* %3, align 4
  store i32 0, i32* %2, align 4
  br label %33

26:                                               ; preds = %15
  %27 = load i32, i32* %2, align 4
  %28 = mul nsw i32 %27, 10
  %29 = load i8, i8* %1, align 1
  %30 = sext i8 %29 to i32
  %31 = add nsw i32 %28, %30
  %32 = sub nsw i32 %31, 48
  store i32 %32, i32* %2, align 4
  br label %33

33:                                               ; preds = %26, %19
  br label %10

34:                                               ; preds = %10
  %35 = load i32, i32* %2, align 4
  %36 = load i32, i32* %3, align 4
  %37 = sext i32 %36 to i64
  %38 = getelementptr inbounds [300 x i32], [300 x i32]* %8, i64 0, i64 %37
  store i32 %35, i32* %38, align 4
  %39 = load i32, i32* %3, align 4
  %40 = add nsw i32 %39, 1
  store i32 %40, i32* %3, align 4
  %41 = getelementptr inbounds [300 x i32], [300 x i32]* %8, i64 0, i64 0
  %42 = load i32, i32* %41, align 16
  store i32 %42, i32* %4, align 4
  store i32 1, i32* %6, align 4
  %43 = load i32, i32* %3, align 4
  store i32 %43, i32* %7, align 4
  br label %44

44:                                               ; preds = %81, %34
  %45 = load i32, i32* %6, align 4
  %46 = load i32, i32* %7, align 4
  %47 = icmp slt i32 %45, %46
  br i1 %47, label %48, label %84

48:                                               ; preds = %44
  %49 = load i32, i32* %6, align 4
  %50 = sext i32 %49 to i64
  %51 = getelementptr inbounds [300 x i32], [300 x i32]* %8, i64 0, i64 %50
  %52 = load i32, i32* %51, align 4
  %53 = load i32, i32* %4, align 4
  %54 = icmp sgt i32 %52, %53
  br i1 %54, label %55, label %61

55:                                               ; preds = %48
  %56 = load i32, i32* %4, align 4
  store i32 %56, i32* %5, align 4
  %57 = load i32, i32* %6, align 4
  %58 = sext i32 %57 to i64
  %59 = getelementptr inbounds [300 x i32], [300 x i32]* %8, i64 0, i64 %58
  %60 = load i32, i32* %59, align 4
  store i32 %60, i32* %4, align 4
  br label %81

61:                                               ; preds = %48
  %62 = load i32, i32* %6, align 4
  %63 = sext i32 %62 to i64
  %64 = getelementptr inbounds [300 x i32], [300 x i32]* %8, i64 0, i64 %63
  %65 = load i32, i32* %64, align 4
  %66 = load i32, i32* %4, align 4
  %67 = icmp slt i32 %65, %66
  br i1 %67, label %68, label %80

68:                                               ; preds = %61
  %69 = load i32, i32* %6, align 4
  %70 = sext i32 %69 to i64
  %71 = getelementptr inbounds [300 x i32], [300 x i32]* %8, i64 0, i64 %70
  %72 = load i32, i32* %71, align 4
  %73 = load i32, i32* %5, align 4
  %74 = icmp sgt i32 %72, %73
  br i1 %74, label %75, label %80

75:                                               ; preds = %68
  %76 = load i32, i32* %6, align 4
  %77 = sext i32 %76 to i64
  %78 = getelementptr inbounds [300 x i32], [300 x i32]* %8, i64 0, i64 %77
  %79 = load i32, i32* %78, align 4
  store i32 %79, i32* %5, align 4
  br label %80

80:                                               ; preds = %75, %68, %61
  br label %81

81:                                               ; preds = %80, %55
  %82 = load i32, i32* %6, align 4
  %83 = add nsw i32 %82, 1
  store i32 %83, i32* %6, align 4
  br label %44

84:                                               ; preds = %44
  %85 = load i32, i32* %5, align 4
  %86 = icmp ne i32 %85, -1
  br i1 %86, label %87, label %90

87:                                               ; preds = %84
  %88 = load i32, i32* %5, align 4
  %89 = call i32 (i8*, ...) @printf(i8* getelementptr inbounds ([3 x i8], [3 x i8]* @.str, i64 0, i64 0), i32 %88)
  br label %92

90:                                               ; preds = %84
  %91 = call i32 (i8*, ...) @printf(i8* getelementptr inbounds ([3 x i8], [3 x i8]* @.str.1, i64 0, i64 0))
  br label %92

92:                                               ; preds = %90, %87
  ret void
}

; Function Attrs: argmemonly nounwind willreturn
declare void @llvm.memset.p0i8.i64(i8* nocapture writeonly, i8, i64, i1 immarg) #1

declare dso_local i32 @getchar() #2

declare dso_local i32 @printf(i8*, ...) #2


!llvm.module.flags = !{!0}
!llvm.ident = !{!1}

!0 = !{i32 1, !"wchar_size", i32 4}
!1 = !{!"clang version 10.0.0-4ubuntu1 "}
